target datalayout = "e-m:e-p270:32:32-p271:32:32-p272:64:64-i64:64-i128:128-f80:128-n8:16:32:64-S128"
target triple = "x86_64-pc-linux-gnu"

%struct.Ssw_Man_t_ = type { ptr, i32, ptr, ptr, ptr, ptr, i32, ptr, ptr, ptr, i32, i32, i32, i32, i32, i32, i32, i32, i32, i32, i32, ptr, i32, ptr, i32, i32, i32, i32, ptr, ptr, ptr, i32, ptr, i32, i32, ptr, ptr, ptr, i32, ptr, i32, i32, i32, i32, i32, i32, i32, i32, i32, i32, i32, i32, i32, i32, i32, i32, i32, i32, i32, i32, i32, i32, i64, i64, i64, i64, i64, i64, i64, i64, i64, i64 }
%struct.Aig_Man_t_ = type { ptr, ptr, ptr, ptr, ptr, ptr, ptr, %struct.Aig_Obj_t_, i32, i32, i32, i32, i32, i32, [7 x i32], i32, ptr, i32, ptr, i32, ptr, i32, i32, i32, ptr, i32, i32, i32, i32, i32, ptr, ptr, i32, ptr, ptr, i32, ptr, ptr, i32, i32, i32, ptr, ptr, ptr, ptr, ptr, ptr, ptr, ptr, ptr, ptr, ptr, ptr, ptr, ptr, i32, ptr, ptr, ptr, ptr, i32, i64, i64, i64, ptr, ptr }
%struct.Aig_Obj_t_ = type { %union.anon, ptr, ptr, i64, i32, i32, %union.anon.0 }
%union.anon = type { ptr }
%union.anon.0 = type { ptr }
%struct.Vec_Int_t_ = type { i32, i32, ptr }
%struct.Vec_Ptr_t_ = type { i32, i32, ptr }

@.str = private unnamed_addr constant [53 x i8] c"Node = %5d : Supp = %3d. Regs = %3d. Feasible = %s. \00", align 1
@.str.1 = private unnamed_addr constant [4 x i8] c"yes\00", align 1
@.str.2 = private unnamed_addr constant [4 x i8] c"no \00", align 1
@.str.3 = private unnamed_addr constant [3 x i8] c"%d\00", align 1
@.str.4 = private unnamed_addr constant [2 x i8] c"\0A\00", align 1

; Function Attrs: nounwind uwtable
define internal i32 @Aig_ObjIsCi(ptr noundef %0) #0 {
  %2 = alloca ptr, align 8
  store ptr %0, ptr %2, align 8
  %3 = load ptr, ptr %2, align 8
  %4 = getelementptr inbounds %struct.Aig_Obj_t_, ptr %3, i32 0, i32 3
  %5 = load i64, ptr %4, align 8
  %6 = and i64 %5, 7
  %7 = trunc i64 %6 to i32
  %8 = icmp eq i32 %7, 2
  %9 = zext i1 %8 to i32
  ret i32 %9
}

; Function Attrs: nounwind uwtable
define internal i32 @Aig_ObjId(ptr noundef %0) #0 {
  %2 = alloca ptr, align 8
  store ptr %0, ptr %2, align 8
  %3 = load ptr, ptr %2, align 8
  %4 = getelementptr inbounds %struct.Aig_Obj_t_, ptr %3, i32 0, i32 5
  %5 = load i32, ptr %4, align 4
  ret i32 %5
}

; Function Attrs: nounwind uwtable
define internal void @Vec_PtrShrink(ptr noundef %0, i32 noundef %1) #0 {
  %3 = alloca ptr, align 8
  %4 = alloca i32, align 4
  store ptr %0, ptr %3, align 8
  store i32 %1, ptr %4, align 4
  %5 = load i32, ptr %4, align 4
  %6 = load ptr, ptr %3, align 8
  %7 = getelementptr inbounds %struct.Vec_Ptr_t_, ptr %6, i32 0, i32 1
  store i32 %5, ptr %7, align 4
  ret void
}

; Function Attrs: nounwind uwtable
define internal i32 @Vec_IntEntry(ptr noundef %0, i32 noundef %1) #0 {
  %3 = alloca ptr, align 8
  %4 = alloca i32, align 4
  store ptr %0, ptr %3, align 8
  store i32 %1, ptr %4, align 4
  %5 = load ptr, ptr %3, align 8
  %6 = getelementptr inbounds %struct.Vec_Int_t_, ptr %5, i32 0, i32 2
  %7 = load ptr, ptr %6, align 8
  %8 = load i32, ptr %4, align 4
  %9 = sext i32 %8 to i64
  %10 = getelementptr inbounds i32, ptr %7, i64 %9
  %11 = load i32, ptr %10, align 4
  ret i32 %11
}

; Function Attrs: nounwind uwtable
define internal i32 @Saig_ManPiNum(ptr noundef %0) #0 {
  %2 = alloca ptr, align 8
  store ptr %0, ptr %2, align 8
  %3 = load ptr, ptr %2, align 8
  %4 = getelementptr inbounds %struct.Aig_Man_t_, ptr %3, i32 0, i32 9
  %5 = load i32, ptr %4, align 4
  ret i32 %5
}

; Function Attrs: nounwind uwtable
define internal i32 @Aig_ObjCioId(ptr noundef %0) #0 {
  %2 = alloca ptr, align 8
  store ptr %0, ptr %2, align 8
  %3 = load ptr, ptr %2, align 8
  %4 = getelementptr inbounds %struct.Aig_Obj_t_, ptr %3, i32 0, i32 0
  %5 = load i32, ptr %4, align 8
  ret i32 %5
}

; Function Attrs: nounwind uwtable
define internal void @Vec_PtrWriteEntry(ptr noundef %0, i32 noundef %1, ptr noundef %2) #0 {
  %4 = alloca ptr, align 8
  %5 = alloca i32, align 4
  %6 = alloca ptr, align 8
  store ptr %0, ptr %4, align 8
  store i32 %1, ptr %5, align 4
  store ptr %2, ptr %6, align 8
  %7 = load ptr, ptr %6, align 8
  %8 = load ptr, ptr %4, align 8
  %9 = getelementptr inbounds %struct.Vec_Ptr_t_, ptr %8, i32 0, i32 2
  %10 = load ptr, ptr %9, align 8
  %11 = load i32, ptr %5, align 4
  %12 = sext i32 %11 to i64
  %13 = getelementptr inbounds ptr, ptr %10, i64 %12
  store ptr %7, ptr %13, align 8
  ret void
}

; Function Attrs: nounwind uwtable
define internal i32 @Saig_ObjIsLo(ptr noundef %0, ptr noundef %1) #0 {
  %3 = alloca ptr, align 8
  %4 = alloca ptr, align 8
  store ptr %0, ptr %3, align 8
  store ptr %1, ptr %4, align 8
  %5 = load ptr, ptr %4, align 8
  %6 = call i32 @Aig_ObjIsCi(ptr noundef %5)
  %7 = icmp ne i32 %6, 0
  br i1 %7, label %8, label %14

8:                                                ; preds = %2
  %9 = load ptr, ptr %4, align 8
  %10 = call i32 @Aig_ObjCioId(ptr noundef %9)
  %11 = load ptr, ptr %3, align 8
  %12 = call i32 @Saig_ManPiNum(ptr noundef %11)
  %13 = icmp sge i32 %10, %12
  br label %14

14:                                               ; preds = %8, %2
  %15 = phi i1 [ false, %2 ], [ %13, %8 ]
  %16 = zext i1 %15 to i32
  ret i32 %16
}

; Function Attrs: nounwind uwtable
define internal ptr @Vec_PtrEntry(ptr noundef %0, i32 noundef %1) #0 {
  %3 = alloca ptr, align 8
  %4 = alloca i32, align 4
  store ptr %0, ptr %3, align 8
  store i32 %1, ptr %4, align 4
  %5 = load ptr, ptr %3, align 8
  %6 = getelementptr inbounds %struct.Vec_Ptr_t_, ptr %5, i32 0, i32 2
  %7 = load ptr, ptr %6, align 8
  %8 = load i32, ptr %4, align 4
  %9 = sext i32 %8 to i64
  %10 = getelementptr inbounds ptr, ptr %7, i64 %9
  %11 = load ptr, ptr %10, align 8
  ret ptr %11
}

; Function Attrs: nounwind uwtable
define internal i32 @Vec_PtrSize(ptr noundef %0) #0 {
  %2 = alloca ptr, align 8
  store ptr %0, ptr %2, align 8
  %3 = load ptr, ptr %2, align 8
  %4 = getelementptr inbounds %struct.Vec_Ptr_t_, ptr %3, i32 0, i32 1
  %5 = load i32, ptr %4, align 4
  ret i32 %5
}

; Function Attrs: nounwind uwtable
define i32 @Ssw_ManUniqueOne(ptr noundef %0, ptr noundef %1, ptr noundef %2, i32 noundef %3) #0 {
  %5 = alloca ptr, align 8
  %6 = alloca ptr, align 8
  %7 = alloca ptr, align 8
  %8 = alloca i32, align 4
  %9 = alloca [2 x ptr], align 16
  %10 = alloca ptr, align 8
  %11 = alloca i32, align 4
  %12 = alloca i32, align 4
  %13 = alloca i32, align 4
  %14 = alloca i32, align 4
  %15 = alloca i32, align 4
  %16 = alloca i32, align 4
  store ptr %0, ptr %5, align 8
  store ptr %1, ptr %6, align 8
  store ptr %2, ptr %7, align 8
  store i32 %3, ptr %8, align 4
  %17 = load ptr, ptr %6, align 8
  %18 = getelementptr inbounds [2 x ptr], ptr %9, i64 0, i64 0
  store ptr %17, ptr %18, align 16
  %19 = load ptr, ptr %7, align 8
  %20 = getelementptr inbounds [2 x ptr], ptr %9, i64 0, i64 1
  store ptr %19, ptr %20, align 8
  %21 = load ptr, ptr %5, align 8
  %22 = getelementptr inbounds %struct.Ssw_Man_t_, ptr %21, i32 0, i32 2
  %23 = load ptr, ptr %22, align 8
  %24 = getelementptr inbounds [2 x ptr], ptr %9, i64 0, i64 0
  %25 = load ptr, ptr %5, align 8
  %26 = getelementptr inbounds %struct.Ssw_Man_t_, ptr %25, i32 0, i32 21
  %27 = load ptr, ptr %26, align 8
  call void @Aig_SupportNodes(ptr noundef %23, ptr noundef %24, i32 noundef 2, ptr noundef %27)
  %28 = load ptr, ptr %5, align 8
  %29 = getelementptr inbounds %struct.Ssw_Man_t_, ptr %28, i32 0, i32 21
  %30 = load ptr, ptr %29, align 8
  %31 = call i32 @Vec_PtrSize(ptr noundef %30)
  store i32 %31, ptr %15, align 4
  store i32 0, ptr %16, align 4
  store i32 0, ptr %12, align 4
  store i32 0, ptr %11, align 4
  br label %32

32:                                               ; preds = %76, %4
  %33 = load i32, ptr %11, align 4
  %34 = load ptr, ptr %5, align 8
  %35 = getelementptr inbounds %struct.Ssw_Man_t_, ptr %34, i32 0, i32 21
  %36 = load ptr, ptr %35, align 8
  %37 = call i32 @Vec_PtrSize(ptr noundef %36)
  %38 = icmp slt i32 %33, %37
  br i1 %38, label %39, label %45

39:                                               ; preds = %32
  %40 = load ptr, ptr %5, align 8
  %41 = getelementptr inbounds %struct.Ssw_Man_t_, ptr %40, i32 0, i32 21
  %42 = load ptr, ptr %41, align 8
  %43 = load i32, ptr %11, align 4
  %44 = call ptr @Vec_PtrEntry(ptr noundef %42, i32 noundef %43)
  store ptr %44, ptr %10, align 8
  br label %45

45:                                               ; preds = %39, %32
  %46 = phi i1 [ false, %32 ], [ true, %39 ]
  br i1 %46, label %47, label %79

47:                                               ; preds = %45
  %48 = load ptr, ptr %5, align 8
  %49 = getelementptr inbounds %struct.Ssw_Man_t_, ptr %48, i32 0, i32 2
  %50 = load ptr, ptr %49, align 8
  %51 = load ptr, ptr %10, align 8
  %52 = call i32 @Saig_ObjIsLo(ptr noundef %50, ptr noundef %51)
  %53 = icmp ne i32 %52, 0
  br i1 %53, label %55, label %54

54:                                               ; preds = %47
  br label %76

55:                                               ; preds = %47
  %56 = load ptr, ptr %5, align 8
  %57 = getelementptr inbounds %struct.Ssw_Man_t_, ptr %56, i32 0, i32 21
  %58 = load ptr, ptr %57, align 8
  %59 = load i32, ptr %12, align 4
  %60 = add nsw i32 %59, 1
  store i32 %60, ptr %12, align 4
  %61 = load ptr, ptr %10, align 8
  call void @Vec_PtrWriteEntry(ptr noundef %58, i32 noundef %59, ptr noundef %61)
  %62 = load ptr, ptr %5, align 8
  %63 = getelementptr inbounds %struct.Ssw_Man_t_, ptr %62, i32 0, i32 23
  %64 = load ptr, ptr %63, align 8
  %65 = load ptr, ptr %10, align 8
  %66 = call i32 @Aig_ObjCioId(ptr noundef %65)
  %67 = load ptr, ptr %5, align 8
  %68 = getelementptr inbounds %struct.Ssw_Man_t_, ptr %67, i32 0, i32 2
  %69 = load ptr, ptr %68, align 8
  %70 = call i32 @Saig_ManPiNum(ptr noundef %69)
  %71 = sub nsw i32 %66, %70
  %72 = call i32 @Vec_IntEntry(ptr noundef %64, i32 noundef %71)
  %73 = icmp ne i32 %72, 0
  br i1 %73, label %74, label %75

74:                                               ; preds = %55
  store i32 1, ptr %16, align 4
  br label %75

75:                                               ; preds = %74, %55
  br label %76

76:                                               ; preds = %75, %54
  %77 = load i32, ptr %11, align 4
  %78 = add nsw i32 %77, 1
  store i32 %78, ptr %11, align 4
  br label %32, !llvm.loop !7

79:                                               ; preds = %45
  %80 = load ptr, ptr %5, align 8
  %81 = getelementptr inbounds %struct.Ssw_Man_t_, ptr %80, i32 0, i32 21
  %82 = load ptr, ptr %81, align 8
  %83 = load i32, ptr %12, align 4
  call void @Vec_PtrShrink(ptr noundef %82, i32 noundef %83)
  %84 = load i32, ptr %8, align 4
  %85 = icmp ne i32 %84, 0
  br i1 %85, label %86, label %97

86:                                               ; preds = %79
  %87 = load ptr, ptr %7, align 8
  %88 = call i32 @Aig_ObjId(ptr noundef %87)
  %89 = load i32, ptr %15, align 4
  %90 = load ptr, ptr %5, align 8
  %91 = getelementptr inbounds %struct.Ssw_Man_t_, ptr %90, i32 0, i32 21
  %92 = load ptr, ptr %91, align 8
  %93 = call i32 @Vec_PtrSize(ptr noundef %92)
  %94 = load i32, ptr %16, align 4
  %95 = icmp ne i32 %94, 0
  %96 = select i1 %95, ptr @.str.1, ptr @.str.2
  call void (i32, ptr, ...) @Abc_Print(i32 noundef 1, ptr noundef @.str, i32 noundef %88, i32 noundef %89, i32 noundef %93, ptr noundef %96)
  br label %97

97:                                               ; preds = %86, %79
  store i32 1, ptr %15, align 4
  store i32 0, ptr %11, align 4
  br label %98

98:                                               ; preds = %132, %97
  %99 = load i32, ptr %11, align 4
  %100 = load ptr, ptr %5, align 8
  %101 = getelementptr inbounds %struct.Ssw_Man_t_, ptr %100, i32 0, i32 21
  %102 = load ptr, ptr %101, align 8
  %103 = call i32 @Vec_PtrSize(ptr noundef %102)
  %104 = icmp slt i32 %99, %103
  br i1 %104, label %105, label %111

105:                                              ; preds = %98
  %106 = load ptr, ptr %5, align 8
  %107 = getelementptr inbounds %struct.Ssw_Man_t_, ptr %106, i32 0, i32 21
  %108 = load ptr, ptr %107, align 8
  %109 = load i32, ptr %11, align 4
  %110 = call ptr @Vec_PtrEntry(ptr noundef %108, i32 noundef %109)
  store ptr %110, ptr %10, align 8
  br label %111

111:                                              ; preds = %105, %98
  %112 = phi i1 [ false, %98 ], [ true, %105 ]
  br i1 %112, label %113, label %135

113:                                              ; preds = %111
  %114 = load ptr, ptr %5, align 8
  %115 = load ptr, ptr %10, align 8
  %116 = call i32 @Ssw_ManGetSatVarValue(ptr noundef %114, ptr noundef %115, i32 noundef 0)
  store i32 %116, ptr %13, align 4
  %117 = load ptr, ptr %5, align 8
  %118 = load ptr, ptr %10, align 8
  %119 = call i32 @Ssw_ManGetSatVarValue(ptr noundef %117, ptr noundef %118, i32 noundef 1)
  store i32 %119, ptr %14, align 4
  %120 = load i32, ptr %13, align 4
  %121 = load i32, ptr %14, align 4
  %122 = icmp ne i32 %120, %121
  br i1 %122, label %123, label %124

123:                                              ; preds = %113
  store i32 0, ptr %15, align 4
  br label %124

124:                                              ; preds = %123, %113
  %125 = load i32, ptr %8, align 4
  %126 = icmp ne i32 %125, 0
  br i1 %126, label %127, label %131

127:                                              ; preds = %124
  %128 = load i32, ptr %13, align 4
  %129 = load i32, ptr %14, align 4
  %130 = xor i32 %128, %129
  call void (i32, ptr, ...) @Abc_Print(i32 noundef 1, ptr noundef @.str.3, i32 noundef %130)
  br label %131

131:                                              ; preds = %127, %124
  br label %132

132:                                              ; preds = %131
  %133 = load i32, ptr %11, align 4
  %134 = add nsw i32 %133, 1
  store i32 %134, ptr %11, align 4
  br label %98, !llvm.loop !8

135:                                              ; preds = %111
  %136 = load i32, ptr %8, align 4
  %137 = icmp ne i32 %136, 0
  br i1 %137, label %138, label %139

138:                                              ; preds = %135
  call void (i32, ptr, ...) @Abc_Print(i32 noundef 1, ptr noundef @.str.4)
  br label %139

139:                                              ; preds = %138, %135
  %140 = load i32, ptr %15, align 4
  %141 = icmp ne i32 %140, 0
  br i1 %141, label %142, label %145

142:                                              ; preds = %139
  %143 = load i32, ptr %16, align 4
  %144 = icmp ne i32 %143, 0
  br label %145

145:                                              ; preds = %142, %139
  %146 = phi i1 [ false, %139 ], [ %144, %142 ]
  %147 = zext i1 %146 to i32
  ret i32 %147
}