; Function Attrs: nounwind uwtable
define range(i32 0, 2) i32 @Ssw_ManUniqueOne(ptr noundef %0, ptr noundef %1, ptr noundef %2, i32 noundef %3) local_unnamed_addr #0 {
  %5 = alloca [2 x ptr], align 16
  store ptr %1, ptr %5, align 16
  %6 = getelementptr inbounds nuw i8, ptr %5, i64 8
  store ptr %2, ptr %6, align 8
  %7 = getelementptr inbounds nuw i8, ptr %0, i64 16
  %8 = load ptr, ptr %7, align 8
  %9 = getelementptr inbounds nuw i8, ptr %0, i64 128
  %10 = load ptr, ptr %9, align 8
  call void @Aig_SupportNodes(ptr noundef %8, ptr noundef nonnull %5, i32 noundef 2, ptr noundef %10) #10
  %11 = load ptr, ptr %9, align 8
  %12 = getelementptr i8, ptr %11, i64 4
  %.val57 = load i32, ptr %12, align 4
  %13 = icmp sgt i32 %.val57, 0
  br i1 %13, label %.lr.ph, label %.critedge

.lr.ph:                                           ; preds = %4
  %14 = getelementptr inbounds nuw i8, ptr %0, i64 144
  br label %15

15:                                               ; preds = %.lr.ph, %Saig_ObjIsLo.exit.thread
  %16 = phi ptr [ %11, %.lr.ph ], [ %36, %Saig_ObjIsLo.exit.thread ]
  %indvars.iv = phi i64 [ 0, %.lr.ph ], [ %indvars.iv.next, %Saig_ObjIsLo.exit.thread ]
  %.070 = phi i32 [ 0, %.lr.ph ], [ %.1, %Saig_ObjIsLo.exit.thread ]
  %.04768 = phi i32 [ 0, %.lr.ph ], [ %.148, %Saig_ObjIsLo.exit.thread ]
  %17 = getelementptr i8, ptr %16, i64 8
  %.val55 = load ptr, ptr %17, align 8
  %18 = getelementptr inbounds nuw ptr, ptr %.val55, i64 %indvars.iv
  %19 = load ptr, ptr %18, align 8
  %20 = getelementptr i8, ptr %19, i64 24
  %.val3.i = load i64, ptr %20, align 8
  %21 = and i64 %.val3.i, 7
  %.not.i = icmp eq i64 %21, 2
  br i1 %.not.i, label %Saig_ObjIsLo.exit, label %Saig_ObjIsLo.exit.thread

Saig_ObjIsLo.exit:                                ; preds = %15
  %22 = load ptr, ptr %7, align 8
  %.val4.i = load i32, ptr %19, align 8
  %23 = getelementptr i8, ptr %22, i64 108
  %.val.i = load i32, ptr %23, align 4
  %.not65 = icmp slt i32 %.val4.i, %.val.i
  br i1 %.not65, label %Saig_ObjIsLo.exit.thread, label %24

24:                                               ; preds = %Saig_ObjIsLo.exit
  %25 = add nsw i32 %.04768, 1
  %26 = sext i32 %.04768 to i64
  %27 = getelementptr inbounds ptr, ptr %.val55, i64 %26
  store ptr %19, ptr %27, align 8
  %28 = load ptr, ptr %14, align 8
  %.val61 = load i32, ptr %19, align 8
  %29 = load ptr, ptr %7, align 8
  %30 = getelementptr i8, ptr %29, i64 108
  %.val = load i32, ptr %30, align 4
  %31 = sub nsw i32 %.val61, %.val
  %32 = getelementptr i8, ptr %28, i64 8
  %.val56 = load ptr, ptr %32, align 8
  %33 = sext i32 %31 to i64
  %34 = getelementptr inbounds i32, ptr %.val56, i64 %33
  %35 = load i32, ptr %34, align 4
  %.not52 = icmp eq i32 %35, 0
  %spec.select = select i1 %.not52, i32 %.070, i32 1
  %.pre = load ptr, ptr %9, align 8
  br label %Saig_ObjIsLo.exit.thread

Saig_ObjIsLo.exit.thread:                         ; preds = %15, %24, %Saig_ObjIsLo.exit
  %36 = phi ptr [ %16, %Saig_ObjIsLo.exit ], [ %.pre, %24 ], [ %16, %15 ]
  %.148 = phi i32 [ %.04768, %Saig_ObjIsLo.exit ], [ %25, %24 ], [ %.04768, %15 ]
  %.1 = phi i32 [ %.070, %Saig_ObjIsLo.exit ], [ %spec.select, %24 ], [ %.070, %15 ]
  %indvars.iv.next = add nuw nsw i64 %indvars.iv, 1
  %37 = getelementptr i8, ptr %36, i64 4
  %.val58 = load i32, ptr %37, align 4
  %38 = sext i32 %.val58 to i64
  %39 = icmp slt i64 %indvars.iv.next, %38
  br i1 %39, label %15, label %.critedge, !llvm.loop !6

.critedge:                                        ; preds = %Saig_ObjIsLo.exit.thread, %4
  %.lcssa66 = phi ptr [ %11, %4 ], [ %36, %Saig_ObjIsLo.exit.thread ]
  %.047.lcssa = phi i32 [ 0, %4 ], [ %.148, %Saig_ObjIsLo.exit.thread ]
  %.0.lcssa = phi i32 [ 0, %4 ], [ %.1, %Saig_ObjIsLo.exit.thread ]
  %40 = getelementptr i8, ptr %.lcssa66, i64 4
  store i32 %.047.lcssa, ptr %40, align 4
  %.not = icmp eq i32 %3, 0
  br i1 %.not, label %41, label %.thread

41:                                               ; preds = %.critedge
  %42 = load ptr, ptr %9, align 8
  %43 = getelementptr i8, ptr %42, i64 4
  %.val6073 = load i32, ptr %43, align 4
  %44 = icmp sgt i32 %.val6073, 0
  br i1 %44, label %.lr.ph76.split.us, label %.critedge2

.thread:                                          ; preds = %.critedge
  %45 = getelementptr i8, ptr %2, i64 36
  %.val63 = load i32, ptr %45, align 4
  %46 = load ptr, ptr %9, align 8
  %47 = getelementptr i8, ptr %46, i64 4
  %.val59 = load i32, ptr %47, align 4
  %.not49 = icmp eq i32 %.0.lcssa, 0
  %48 = select i1 %.not49, ptr @.str.2, ptr @.str.1
  call void (i32, ptr, ...) @Abc_Print(i32 poison, ptr noundef nonnull @.str, i32 noundef %.val63, i32 noundef %.val57, i32 noundef %.val59, ptr noundef nonnull %48)
  %49 = load ptr, ptr %9, align 8
  %50 = getelementptr i8, ptr %49, i64 4
  %.val607386 = load i32, ptr %50, align 4
  %51 = icmp sgt i32 %.val607386, 0
  br i1 %51, label %.lr.ph76.split, label %.critedge2.thread

.lr.ph76.split.us:                                ; preds = %41, %.lr.ph76.split.us
  %indvars.iv83 = phi i64 [ %indvars.iv.next84, %.lr.ph76.split.us ], [ 0, %41 ]
  %52 = phi ptr [ %58, %.lr.ph76.split.us ], [ %42, %41 ]
  %.04375.us = phi i32 [ %spec.select53.us, %.lr.ph76.split.us ], [ 1, %41 ]
  %53 = getelementptr i8, ptr %52, i64 8
  %.val54.us = load ptr, ptr %53, align 8
  %54 = getelementptr inbounds nuw ptr, ptr %.val54.us, i64 %indvars.iv83
  %55 = load ptr, ptr %54, align 8
  %56 = call i32 @Ssw_ManGetSatVarValue(ptr noundef nonnull %0, ptr noundef %55, i32 noundef 0) #10
  %57 = call i32 @Ssw_ManGetSatVarValue(ptr noundef nonnull %0, ptr noundef %55, i32 noundef 1) #10
  %.not50.us = icmp eq i32 %56, %57
  %spec.select53.us = select i1 %.not50.us, i32 %.04375.us, i32 0
  %indvars.iv.next84 = add nuw nsw i64 %indvars.iv83, 1
  %58 = load ptr, ptr %9, align 8
  %59 = getelementptr i8, ptr %58, i64 4
  %.val60.us = load i32, ptr %59, align 4
  %60 = sext i32 %.val60.us to i64
  %61 = icmp slt i64 %indvars.iv.next84, %60
  br i1 %61, label %.lr.ph76.split.us, label %.critedge2, !llvm.loop !7

.lr.ph76.split:                                   ; preds = %.thread, %.lr.ph76.split
  %indvars.iv80 = phi i64 [ %indvars.iv.next81, %.lr.ph76.split ], [ 0, %.thread ]
  %62 = phi ptr [ %69, %.lr.ph76.split ], [ %49, %.thread ]
  %.04375 = phi i32 [ %spec.select53, %.lr.ph76.split ], [ 1, %.thread ]
  %63 = getelementptr i8, ptr %62, i64 8
  %.val54 = load ptr, ptr %63, align 8
  %64 = getelementptr inbounds nuw ptr, ptr %.val54, i64 %indvars.iv80
  %65 = load ptr, ptr %64, align 8
  %66 = call i32 @Ssw_ManGetSatVarValue(ptr noundef nonnull %0, ptr noundef %65, i32 noundef 0) #10
  %67 = call i32 @Ssw_ManGetSatVarValue(ptr noundef nonnull %0, ptr noundef %65, i32 noundef 1) #10
  %.not50 = icmp eq i32 %66, %67
  %spec.select53 = select i1 %.not50, i32 %.04375, i32 0
  %68 = xor i32 %67, %66
  call void (i32, ptr, ...) @Abc_Print(i32 poison, ptr noundef nonnull @.str.3, i32 noundef %68)
  %indvars.iv.next81 = add nuw nsw i64 %indvars.iv80, 1
  %69 = load ptr, ptr %9, align 8
  %70 = getelementptr i8, ptr %69, i64 4
  %.val60 = load i32, ptr %70, align 4
  %71 = sext i32 %.val60 to i64
  %72 = icmp slt i64 %indvars.iv.next81, %71
  br i1 %72, label %.lr.ph76.split, label %.critedge2, !llvm.loop !7

.critedge2:                                       ; preds = %.lr.ph76.split, %.lr.ph76.split.us, %41
  %.043.lcssa = phi i32 [ 1, %41 ], [ %spec.select53.us, %.lr.ph76.split.us ], [ %spec.select53, %.lr.ph76.split ]
  br i1 %.not, label %73, label %.critedge2.thread

.critedge2.thread:                                ; preds = %.thread, %.critedge2
  %.043.lcssa88 = phi i32 [ %.043.lcssa, %.critedge2 ], [ 1, %.thread ]
  call void (i32, ptr, ...) @Abc_Print(i32 poison, ptr noundef nonnull @.str.4)
  br label %73

73:                                               ; preds = %.critedge2.thread, %.critedge2
  %.043.lcssa89 = phi i32 [ %.043.lcssa88, %.critedge2.thread ], [ %.043.lcssa, %.critedge2 ]
  %74 = icmp ne i32 %.043.lcssa89, 0
  %75 = icmp ne i32 %.0.lcssa, 0
  %76 = select i1 %74, i1 %75, i1 false
  %77 = zext i1 %76 to i32
  ret i32 %77
}